; ModuleID = '26/446.c'
source_filename = "26/446.c"
target datalayout = "e-m:e-p270:32:32-p271:32:32-p272:64:64-i64:64-f80:128-n8:16:32:64-S128"
target triple = "x86_64-pc-linux-gnu"

@.str = private unnamed_addr constant [3 x i8] c"%c\00", align 1
@.str.1 = private unnamed_addr constant [2 x i8] c"\0A\00", align 1

; Function Attrs: noinline nounwind uwtable
define dso_local i32 @main() #0 {
  %1 = alloca i32, align 4
  %2 = alloca [100 x i8], align 16
  %3 = alloca i32, align 4
  %4 = alloca i32, align 4
  %5 = alloca i32, align 4
  %6 = alloca i32, align 4
  %7 = alloca i32, align 4
  %8 = alloca i32, align 4
  %9 = alloca i32, align 4
  %10 = alloca i32, align 4
  store i32 0, i32* %1, align 4
  store i32 0, i32* %10, align 4
  %11 = getelementptr inbounds [100 x i8], [100 x i8]* %2, i64 0, i64 0
  %12 = call i32 (i8*, ...) bitcast (i32 (...)* @gets to i32 (i8*, ...)*)(i8* %11)
  %13 = getelementptr inbounds [100 x i8], [100 x i8]* %2, i64 0, i64 0
  %14 = call i64 @strlen(i8* %13) #3
  %15 = trunc i64 %14 to i32
  store i32 %15, i32* %4, align 4
  store i32 0, i32* %7, align 4
  br label %16

16:                                               ; preds = %106, %0
  %17 = load i32, i32* %7, align 4
  %18 = load i32, i32* %4, align 4
  %19 = icmp slt i32 %17, %18
  br i1 %19, label %20, label %109

20:                                               ; preds = %16
  %21 = load i32, i32* %7, align 4
  %22 = sext i32 %21 to i64
  %23 = getelementptr inbounds [100 x i8], [100 x i8]* %2, i64 0, i64 %22
  %24 = load i8, i8* %23, align 1
  %25 = sext i8 %24 to i32
  %26 = icmp ne i32 %25, 0
  br i1 %26, label %27, label %105

27:                                               ; preds = %20
  store i32 0, i32* %3, align 4
  br label %28

28:                                               ; preds = %101, %27
  %29 = load i32, i32* %3, align 4
  %30 = load i32, i32* %4, align 4
  %31 = icmp slt i32 %29, %30
  br i1 %31, label %32, label %104

32:                                               ; preds = %28
  store i32 0, i32* %5, align 4
  %33 = load i32, i32* %3, align 4
  %34 = sext i32 %33 to i64
  %35 = getelementptr inbounds [100 x i8], [100 x i8]* %2, i64 0, i64 %34
  %36 = load i8, i8* %35, align 1
  %37 = sext i8 %36 to i32
  %38 = icmp eq i32 %37, 32
  br i1 %38, label %39, label %92

39:                                               ; preds = %32
  store i32 1, i32* %8, align 4
  %40 = load i32, i32* %3, align 4
  store i32 %40, i32* %6, align 4
  br label %41

41:                                               ; preds = %61, %39
  %42 = load i32, i32* %6, align 4
  %43 = load i32, i32* %4, align 4
  %44 = icmp slt i32 %42, %43
  br i1 %44, label %45, label %64

45:                                               ; preds = %41
  %46 = load i32, i32* %6, align 4
  %47 = sext i32 %46 to i64
  %48 = getelementptr inbounds [100 x i8], [100 x i8]* %2, i64 0, i64 %47
  %49 = load i8, i8* %48, align 1
  %50 = sext i8 %49 to i32
  %51 = icmp eq i32 %50, 32
  br i1 %51, label %52, label %57

52:                                               ; preds = %45
  %53 = load i32, i32* %8, align 4
  %54 = mul nsw i32 %53, 1
  store i32 %54, i32* %8, align 4
  %55 = load i32, i32* %5, align 4
  %56 = add nsw i32 %55, 1
  store i32 %56, i32* %5, align 4
  br label %60

57:                                               ; preds = %45
  %58 = load i32, i32* %8, align 4
  %59 = mul nsw i32 %58, 0
  store i32 %59, i32* %8, align 4
  br label %64

60:                                               ; preds = %52
  br label %61

61:                                               ; preds = %60
  %62 = load i32, i32* %6, align 4
  %63 = add nsw i32 %62, 1
  store i32 %63, i32* %6, align 4
  br label %41

64:                                               ; preds = %57, %41
  %65 = load i32, i32* %5, align 4
  %66 = icmp sgt i32 %65, 1
  br i1 %66, label %67, label %91

67:                                               ; preds = %64
  store i32 0, i32* %9, align 4
  br label %68

68:                                               ; preds = %87, %67
  %69 = load i32, i32* %9, align 4
  %70 = load i32, i32* %4, align 4
  %71 = icmp slt i32 %69, %70
  br i1 %71, label %72, label %90

72:                                               ; preds = %68
  %73 = load i32, i32* %3, align 4
  %74 = load i32, i32* %5, align 4
  %75 = add nsw i32 %73, %74
  %76 = load i32, i32* %9, align 4
  %77 = add nsw i32 %75, %76
  %78 = sext i32 %77 to i64
  %79 = getelementptr inbounds [100 x i8], [100 x i8]* %2, i64 0, i64 %78
  %80 = load i8, i8* %79, align 1
  %81 = load i32, i32* %3, align 4
  %82 = add nsw i32 %81, 1
  %83 = load i32, i32* %9, align 4
  %84 = add nsw i32 %82, %83
  %85 = sext i32 %84 to i64
  %86 = getelementptr inbounds [100 x i8], [100 x i8]* %2, i64 0, i64 %85
  store i8 %80, i8* %86, align 1
  br label %87

87:                                               ; preds = %72
  %88 = load i32, i32* %9, align 4
  %89 = add nsw i32 %88, 1
  store i32 %89, i32* %9, align 4
  br label %68

90:                                               ; preds = %68
  br label %91

91:                                               ; preds = %90, %64
  br label %92

92:                                               ; preds = %91, %32
  %93 = load i32, i32* %5, align 4
  %94 = icmp sgt i32 %93, 1
  br i1 %94, label %95, label %100

95:                                               ; preds = %92
  %96 = load i32, i32* %5, align 4
  %97 = sub nsw i32 %96, 1
  %98 = load i32, i32* %10, align 4
  %99 = add nsw i32 %98, %97
  store i32 %99, i32* %10, align 4
  br label %104

100:                                              ; preds = %92
  br label %101

101:                                              ; preds = %100
  %102 = load i32, i32* %3, align 4
  %103 = add nsw i32 %102, 1
  store i32 %103, i32* %3, align 4
  br label %28

104:                                              ; preds = %95, %28
  br label %105

105:                                              ; preds = %104, %20
  br label %106

106:                                              ; preds = %105
  %107 = load i32, i32* %7, align 4
  %108 = add nsw i32 %107, 1
  store i32 %108, i32* %7, align 4
  br label %16

109:                                              ; preds = %16
  store i32 0, i32* %3, align 4
  br label %110

110:                                              ; preds = %123, %109
  %111 = load i32, i32* %3, align 4
  %112 = load i32, i32* %4, align 4
  %113 = load i32, i32* %10, align 4
  %114 = sub nsw i32 %112, %113
  %115 = icmp slt i32 %111, %114
  br i1 %115, label %116, label %126

116:                                              ; preds = %110
  %117 = load i32, i32* %3, align 4
  %118 = sext i32 %117 to i64
  %119 = getelementptr inbounds [100 x i8], [100 x i8]* %2, i64 0, i64 %118
  %120 = load i8, i8* %119, align 1
  %121 = sext i8 %120 to i32
  %122 = call i32 (i8*, ...) @printf(i8* getelementptr inbounds ([3 x i8], [3 x i8]* @.str, i64 0, i64 0), i32 %121)
  br label %123

123:                                              ; preds = %116
  %124 = load i32, i32* %3, align 4
  %125 = add nsw i32 %124, 1
  store i32 %125, i32* %3, align 4
  br label %110

126:                                              ; preds = %110
  %127 = call i32 (i8*, ...) @printf(i8* getelementptr inbounds ([2 x i8], [2 x i8]* @.str.1, i64 0, i64 0))
  ret i32 0
}

declare dso_local i32 @gets(...) #1

; Function Attrs: nounwind readonly
declare dso_local i64 @strlen(i8*) #2

declare dso_local i32 @printf(i8*, ...) #1


!llvm.module.flags = !{!0}
!llvm.ident = !{!1}

!0 = !{i32 1, !"wchar_size", i32 4}
!1 = !{!"clang version 10.0.0-4ubuntu1 "}
